target datalayout = "e-m:e-p270:32:32-p271:32:32-p272:64:64-i64:64-i128:128-f80:128-n8:16:32:64-S128"
target triple = "x86_64-unknown-linux-gnu"

%"class.proxygen::ByteEvent" = type { ptr, %"class.boost::intrusive::list_member_hook", i64, %"class.std::function" }
%"class.boost::intrusive::list_member_hook" = type { %"class.boost::intrusive::generic_hook" }
%"class.boost::intrusive::generic_hook" = type { %"struct.boost::intrusive::list_node" }
%"struct.boost::intrusive::list_node" = type { ptr, ptr }
%"class.std::function" = type { %"class.std::_Function_base", ptr }
%"class.std::_Function_base" = type { %"union.std::_Any_data", ptr }
%"union.std::_Any_data" = type { %"union.std::_Nocopy_types" }
%"union.std::_Nocopy_types" = type { { i64, i64 } }
%"class.std::chrono::duration" = type { i64 }
%"class.std::chrono::time_point" = type { %"class.std::chrono::duration.0" }
%"class.std::chrono::duration.0" = type { i64 }
%"class.proxygen::PingByteEvent" = type { %"class.proxygen::ByteEvent", %"class.std::chrono::time_point" }

; Function Attrs: mustprogress nounwind uwtable
define linkonce_odr void @_ZNSt6chrono8durationIlSt5ratioILl1ELl1000EEEC2IlvEERKT_(ptr noundef nonnull align 8 dereferenceable(8) %this, ptr noundef nonnull align 8 dereferenceable(8) %__rep) unnamed_addr #4 comdat align 2 {
entry:
  %this.addr = alloca ptr, align 8
  %__rep.addr = alloca ptr, align 8
  store ptr %this, ptr %this.addr, align 8
  store ptr %__rep, ptr %__rep.addr, align 8
  %this1 = load ptr, ptr %this.addr, align 8
  %__r = getelementptr inbounds %"class.std::chrono::duration", ptr %this1, i32 0, i32 0
  %0 = load ptr, ptr %__rep.addr, align 8
  %1 = load i64, ptr %0, align 8
  store i64 %1, ptr %__r, align 8
  ret void
}

; Function Attrs: mustprogress nounwind uwtable
define linkonce_odr void @_ZNSt6chrono8durationIlSt5ratioILl1ELl1000000000EEEC2IlvEERKT_(ptr noundef nonnull align 8 dereferenceable(8) %this, ptr noundef nonnull align 8 dereferenceable(8) %__rep) unnamed_addr #4 comdat align 2 {
entry:
  %this.addr = alloca ptr, align 8
  %__rep.addr = alloca ptr, align 8
  store ptr %this, ptr %this.addr, align 8
  store ptr %__rep, ptr %__rep.addr, align 8
  %this1 = load ptr, ptr %this.addr, align 8
  %__r = getelementptr inbounds %"class.std::chrono::duration.0", ptr %this1, i32 0, i32 0
  %0 = load ptr, ptr %__rep.addr, align 8
  %1 = load i64, ptr %0, align 8
  store i64 %1, ptr %__r, align 8
  ret void
}

; Function Attrs: mustprogress nounwind uwtable
define linkonce_odr noundef i64 @_ZNKSt6chrono8durationIlSt5ratioILl1ELl1000000000EEE5countEv(ptr noundef nonnull align 8 dereferenceable(8) %this) #4 comdat align 2 {
entry:
  %this.addr = alloca ptr, align 8
  store ptr %this, ptr %this.addr, align 8
  %this1 = load ptr, ptr %this.addr, align 8
  %__r = getelementptr inbounds %"class.std::chrono::duration.0", ptr %this1, i32 0, i32 0
  %0 = load i64, ptr %__r, align 8
  ret i64 %0
}

; Function Attrs: mustprogress uwtable
define linkonce_odr i64 @_ZNSt6chrono20__duration_cast_implINS_8durationIlSt5ratioILl1ELl1000EEEES2_ILl1ELl1000000EElLb1ELb0EE6__castIlS2_ILl1ELl1000000000EEEES4_RKNS1_IT_T0_EE(ptr noundef nonnull align 8 dereferenceable(8) %__d) #0 comdat align 2 {
entry:
  %retval = alloca %"class.std::chrono::duration", align 8
  %__d.addr = alloca ptr, align 8
  %ref.tmp = alloca i64, align 8
  store ptr %__d, ptr %__d.addr, align 8
  %0 = load ptr, ptr %__d.addr, align 8
  %call = call noundef i64 @_ZNKSt6chrono8durationIlSt5ratioILl1ELl1000000000EEE5countEv(ptr noundef nonnull align 8 dereferenceable(8) %0)
  %div = sdiv i64 %call, 1000000
  store i64 %div, ptr %ref.tmp, align 8
  call void @_ZNSt6chrono8durationIlSt5ratioILl1ELl1000EEEC2IlvEERKT_(ptr noundef nonnull align 8 dereferenceable(8) %retval, ptr noundef nonnull align 8 dereferenceable(8) %ref.tmp)
  %coerce.dive = getelementptr inbounds %"class.std::chrono::duration", ptr %retval, i32 0, i32 0
  %1 = load i64, ptr %coerce.dive, align 8
  ret i64 %1
}

; Function Attrs: mustprogress uwtable
define linkonce_odr i64 @_ZNSt6chronomiIlSt5ratioILl1ELl1000000000EElS2_EENSt11common_typeIJNS_8durationIT_T0_EENS4_IT1_T2_EEEE4typeERKS7_RKSA_(ptr noundef nonnull align 8 dereferenceable(8) %__lhs, ptr noundef nonnull align 8 dereferenceable(8) %__rhs) #0 comdat {
entry:
  %retval = alloca %"class.std::chrono::duration.0", align 8
  %__lhs.addr = alloca ptr, align 8
  %__rhs.addr = alloca ptr, align 8
  %ref.tmp = alloca i64, align 8
  %ref.tmp1 = alloca %"class.std::chrono::duration.0", align 8
  %ref.tmp2 = alloca %"class.std::chrono::duration.0", align 8
  store ptr %__lhs, ptr %__lhs.addr, align 8
  store ptr %__rhs, ptr %__rhs.addr, align 8
  %0 = load ptr, ptr %__lhs.addr, align 8
  call void @llvm.memcpy.p0.p0.i64(ptr align 8 %ref.tmp1, ptr align 8 %0, i64 8, i1 false)
  %call = call noundef i64 @_ZNKSt6chrono8durationIlSt5ratioILl1ELl1000000000EEE5countEv(ptr noundef nonnull align 8 dereferenceable(8) %ref.tmp1)
  %1 = load ptr, ptr %__rhs.addr, align 8
  call void @llvm.memcpy.p0.p0.i64(ptr align 8 %ref.tmp2, ptr align 8 %1, i64 8, i1 false)
  %call3 = call noundef i64 @_ZNKSt6chrono8durationIlSt5ratioILl1ELl1000000000EEE5countEv(ptr noundef nonnull align 8 dereferenceable(8) %ref.tmp2)
  %sub = sub nsw i64 %call, %call3
  store i64 %sub, ptr %ref.tmp, align 8
  call void @_ZNSt6chrono8durationIlSt5ratioILl1ELl1000000000EEEC2IlvEERKT_(ptr noundef nonnull align 8 dereferenceable(8) %retval, ptr noundef nonnull align 8 dereferenceable(8) %ref.tmp)
  %coerce.dive = getelementptr inbounds %"class.std::chrono::duration.0", ptr %retval, i32 0, i32 0
  %2 = load i64, ptr %coerce.dive, align 8
  ret i64 %2
}

; Function Attrs: mustprogress nounwind uwtable
define linkonce_odr i64 @_ZNKSt6chrono10time_pointINS_3_V212steady_clockENS_8durationIlSt5ratioILl1ELl1000000000EEEEE16time_since_epochEv(ptr noundef nonnull align 8 dereferenceable(8) %this) #4 comdat align 2 {
entry:
  %retval = alloca %"class.std::chrono::duration.0", align 8
  %this.addr = alloca ptr, align 8
  store ptr %this, ptr %this.addr, align 8
  %this1 = load ptr, ptr %this.addr, align 8
  %__d = getelementptr inbounds %"class.std::chrono::time_point", ptr %this1, i32 0, i32 0
  call void @llvm.memcpy.p0.p0.i64(ptr align 8 %retval, ptr align 8 %__d, i64 8, i1 false)
  %coerce.dive = getelementptr inbounds %"class.std::chrono::duration.0", ptr %retval, i32 0, i32 0
  %0 = load i64, ptr %coerce.dive, align 8
  ret i64 %0
}

; Function Attrs: mustprogress uwtable
define linkonce_odr i64 @_ZNSt6chrono13duration_castINS_8durationIlSt5ratioILl1ELl1000EEEElS2_ILl1ELl1000000000EEEENSt9enable_ifIXsr13__is_durationIT_EE5valueES7_E4typeERKNS1_IT0_T1_EE(ptr noundef nonnull align 8 dereferenceable(8) %__d) #0 comdat {
entry:
  %retval = alloca %"class.std::chrono::duration", align 8
  %__d.addr = alloca ptr, align 8
  store ptr %__d, ptr %__d.addr, align 8
  %0 = load ptr, ptr %__d.addr, align 8
  %call = call i64 @_ZNSt6chrono20__duration_cast_implINS_8durationIlSt5ratioILl1ELl1000EEEES2_ILl1ELl1000000EElLb1ELb0EE6__castIlS2_ILl1ELl1000000000EEEES4_RKNS1_IT_T0_EE(ptr noundef nonnull align 8 dereferenceable(8) %0)
  %coerce.dive = getelementptr inbounds %"class.std::chrono::duration", ptr %retval, i32 0, i32 0
  store i64 %call, ptr %coerce.dive, align 8
  %coerce.dive1 = getelementptr inbounds %"class.std::chrono::duration", ptr %retval, i32 0, i32 0
  %1 = load i64, ptr %coerce.dive1, align 8
  ret i64 %1
}

; Function Attrs: mustprogress uwtable
define linkonce_odr i64 @_ZNSt6chronomiINS_3_V212steady_clockENS_8durationIlSt5ratioILl1ELl1000000000EEEES6_EENSt11common_typeIJT0_T1_EE4typeERKNS_10time_pointIT_S8_EERKNSC_ISD_S9_EE(ptr noundef nonnull align 8 dereferenceable(8) %__lhs, ptr noundef nonnull align 8 dereferenceable(8) %__rhs) #0 comdat {
entry:
  %retval = alloca %"class.std::chrono::duration.0", align 8
  %__lhs.addr = alloca ptr, align 8
  %__rhs.addr = alloca ptr, align 8
  %ref.tmp = alloca %"class.std::chrono::duration.0", align 8
  %ref.tmp1 = alloca %"class.std::chrono::duration.0", align 8
  store ptr %__lhs, ptr %__lhs.addr, align 8
  store ptr %__rhs, ptr %__rhs.addr, align 8
  %0 = load ptr, ptr %__lhs.addr, align 8
  %call = call i64 @_ZNKSt6chrono10time_pointINS_3_V212steady_clockENS_8durationIlSt5ratioILl1ELl1000000000EEEEE16time_since_epochEv(ptr noundef nonnull align 8 dereferenceable(8) %0)
  %coerce.dive = getelementptr inbounds %"class.std::chrono::duration.0", ptr %ref.tmp, i32 0, i32 0
  store i64 %call, ptr %coerce.dive, align 8
  %1 = load ptr, ptr %__rhs.addr, align 8
  %call2 = call i64 @_ZNKSt6chrono10time_pointINS_3_V212steady_clockENS_8durationIlSt5ratioILl1ELl1000000000EEEEE16time_since_epochEv(ptr noundef nonnull align 8 dereferenceable(8) %1)
  %coerce.dive3 = getelementptr inbounds %"class.std::chrono::duration.0", ptr %ref.tmp1, i32 0, i32 0
  store i64 %call2, ptr %coerce.dive3, align 8
  %call4 = call i64 @_ZNSt6chronomiIlSt5ratioILl1ELl1000000000EElS2_EENSt11common_typeIJNS_8durationIT_T0_EENS4_IT1_T2_EEEE4typeERKS7_RKSA_(ptr noundef nonnull align 8 dereferenceable(8) %ref.tmp, ptr noundef nonnull align 8 dereferenceable(8) %ref.tmp1)
  %coerce.dive5 = getelementptr inbounds %"class.std::chrono::duration.0", ptr %retval, i32 0, i32 0
  store i64 %call4, ptr %coerce.dive5, align 8
  %coerce.dive6 = getelementptr inbounds %"class.std::chrono::duration.0", ptr %retval, i32 0, i32 0
  %2 = load i64, ptr %coerce.dive6, align 8
  ret i64 %2
}

; Function Attrs: mustprogress uwtable
define linkonce_odr i64 @_ZN8proxygen19millisecondsBetweenINSt6chrono3_V212steady_clockEEENS1_8durationIlSt5ratioILl1ELl1000EEEENS1_10time_pointIT_NS9_8durationEEESB_(i64 %finish.coerce, i64 %start.coerce) #0 comdat {
entry:
  %retval = alloca %"class.std::chrono::duration", align 8
  %finish = alloca %"class.std::chrono::time_point", align 8
  %start = alloca %"class.std::chrono::time_point", align 8
  %ref.tmp = alloca %"class.std::chrono::duration.0", align 8
  %coerce.dive = getelementptr inbounds %"class.std::chrono::time_point", ptr %finish, i32 0, i32 0
  %coerce.dive1 = getelementptr inbounds %"class.std::chrono::duration.0", ptr %coerce.dive, i32 0, i32 0
  store i64 %finish.coerce, ptr %coerce.dive1, align 8
  %coerce.dive2 = getelementptr inbounds %"class.std::chrono::time_point", ptr %start, i32 0, i32 0
  %coerce.dive3 = getelementptr inbounds %"class.std::chrono::duration.0", ptr %coerce.dive2, i32 0, i32 0
  store i64 %start.coerce, ptr %coerce.dive3, align 8
  %call = call i64 @_ZNSt6chronomiINS_3_V212steady_clockENS_8durationIlSt5ratioILl1ELl1000000000EEEES6_EENSt11common_typeIJT0_T1_EE4typeERKNS_10time_pointIT_S8_EERKNSC_ISD_S9_EE(ptr noundef nonnull align 8 dereferenceable(8) %finish, ptr noundef nonnull align 8 dereferenceable(8) %start)
  %coerce.dive4 = getelementptr inbounds %"class.std::chrono::duration.0", ptr %ref.tmp, i32 0, i32 0
  store i64 %call, ptr %coerce.dive4, align 8
  %call5 = call i64 @_ZNSt6chrono13duration_castINS_8durationIlSt5ratioILl1ELl1000EEEElS2_ILl1ELl1000000000EEEENSt9enable_ifIXsr13__is_durationIT_EE5valueES7_E4typeERKNS1_IT0_T1_EE(ptr noundef nonnull align 8 dereferenceable(8) %ref.tmp)
  %coerce.dive6 = getelementptr inbounds %"class.std::chrono::duration", ptr %retval, i32 0, i32 0
  store i64 %call5, ptr %coerce.dive6, align 8
  %coerce.dive7 = getelementptr inbounds %"class.std::chrono::duration", ptr %retval, i32 0, i32 0
  %0 = load i64, ptr %coerce.dive7, align 8
  ret i64 %0
}

; Function Attrs: mustprogress nounwind uwtable
define linkonce_odr i64 @_ZN8proxygen14getCurrentTimeINSt6chrono3_V212steady_clockEEENS1_10time_pointIT_NS5_8durationEEEv() #4 comdat {
entry:
  %retval = alloca %"class.std::chrono::time_point", align 8
  %call = call i64 @_ZNSt6chrono3_V212steady_clock3nowEv() #8
  %coerce.dive = getelementptr inbounds %"class.std::chrono::time_point", ptr %retval, i32 0, i32 0
  %coerce.dive1 = getelementptr inbounds %"class.std::chrono::duration.0", ptr %coerce.dive, i32 0, i32 0
  store i64 %call, ptr %coerce.dive1, align 8
  %coerce.dive2 = getelementptr inbounds %"class.std::chrono::time_point", ptr %retval, i32 0, i32 0
  %coerce.dive3 = getelementptr inbounds %"class.std::chrono::duration.0", ptr %coerce.dive2, i32 0, i32 0
  %0 = load i64, ptr %coerce.dive3, align 8
  ret i64 %0
}

; Function Attrs: mustprogress nounwind uwtable
define linkonce_odr noundef i64 @_ZNKSt6chrono8durationIlSt5ratioILl1ELl1000EEE5countEv(ptr noundef nonnull align 8 dereferenceable(8) %this) #4 comdat align 2 {
entry:
  %this.addr = alloca ptr, align 8
  store ptr %this, ptr %this.addr, align 8
  %this1 = load ptr, ptr %this.addr, align 8
  %__r = getelementptr inbounds %"class.std::chrono::duration", ptr %this1, i32 0, i32 0
  %0 = load i64, ptr %__r, align 8
  ret i64 %0
}

; Function Attrs: mustprogress uwtable
define linkonce_odr i64 @_ZN8proxygen17millisecondsSinceINSt6chrono3_V212steady_clockEEENS1_8durationIlSt5ratioILl1ELl1000EEEENS1_10time_pointIT_NS9_8durationEEE(i64 %t.coerce) #0 comdat {
entry:
  %retval = alloca %"class.std::chrono::duration", align 8
  %t = alloca %"class.std::chrono::time_point", align 8
  %agg.tmp = alloca %"class.std::chrono::time_point", align 8
  %agg.tmp4 = alloca %"class.std::chrono::time_point", align 8
  %coerce.dive = getelementptr inbounds %"class.std::chrono::time_point", ptr %t, i32 0, i32 0
  %coerce.dive1 = getelementptr inbounds %"class.std::chrono::duration.0", ptr %coerce.dive, i32 0, i32 0
  store i64 %t.coerce, ptr %coerce.dive1, align 8
  %call = call i64 @_ZN8proxygen14getCurrentTimeINSt6chrono3_V212steady_clockEEENS1_10time_pointIT_NS5_8durationEEEv()
  %coerce.dive2 = getelementptr inbounds %"class.std::chrono::time_point", ptr %agg.tmp, i32 0, i32 0
  %coerce.dive3 = getelementptr inbounds %"class.std::chrono::duration.0", ptr %coerce.dive2, i32 0, i32 0
  store i64 %call, ptr %coerce.dive3, align 8
  call void @llvm.memcpy.p0.p0.i64(ptr align 8 %agg.tmp4, ptr align 8 %t, i64 8, i1 false)
  %coerce.dive5 = getelementptr inbounds %"class.std::chrono::time_point", ptr %agg.tmp, i32 0, i32 0
  %coerce.dive6 = getelementptr inbounds %"class.std::chrono::duration.0", ptr %coerce.dive5, i32 0, i32 0
  %0 = load i64, ptr %coerce.dive6, align 8
  %coerce.dive7 = getelementptr inbounds %"class.std::chrono::time_point", ptr %agg.tmp4, i32 0, i32 0
  %coerce.dive8 = getelementptr inbounds %"class.std::chrono::duration.0", ptr %coerce.dive7, i32 0, i32 0
  %1 = load i64, ptr %coerce.dive8, align 8
  %call9 = call i64 @_ZN8proxygen19millisecondsBetweenINSt6chrono3_V212steady_clockEEENS1_8durationIlSt5ratioILl1ELl1000EEEENS1_10time_pointIT_NS9_8durationEEESB_(i64 %0, i64 %1)
  %coerce.dive10 = getelementptr inbounds %"class.std::chrono::duration", ptr %retval, i32 0, i32 0
  store i64 %call9, ptr %coerce.dive10, align 8
  %coerce.dive11 = getelementptr inbounds %"class.std::chrono::duration", ptr %retval, i32 0, i32 0
  %2 = load i64, ptr %coerce.dive11, align 8
  ret i64 %2
}

; Function Attrs: mustprogress uwtable
define noundef i64 @_ZN8proxygen13PingByteEvent10getLatencyEv(ptr noundef nonnull align 8 dereferenceable(72) %this) unnamed_addr #0 align 2 {
entry:
  %this.addr = alloca ptr, align 8
  %ref.tmp = alloca %"class.std::chrono::duration", align 8
  %agg.tmp = alloca %"class.std::chrono::time_point", align 8
  store ptr %this, ptr %this.addr, align 8
  %this1 = load ptr, ptr %this.addr, align 8
  %pingRequestReceivedTime_ = getelementptr inbounds %"class.proxygen::PingByteEvent", ptr %this1, i32 0, i32 1
  call void @llvm.memcpy.p0.p0.i64(ptr align 8 %agg.tmp, ptr align 8 %pingRequestReceivedTime_, i64 8, i1 false)
  %coerce.dive = getelementptr inbounds %"class.std::chrono::time_point", ptr %agg.tmp, i32 0, i32 0
  %coerce.dive2 = getelementptr inbounds %"class.std::chrono::duration.0", ptr %coerce.dive, i32 0, i32 0
  %0 = load i64, ptr %coerce.dive2, align 8
  %call = call i64 @_ZN8proxygen17millisecondsSinceINSt6chrono3_V212steady_clockEEENS1_8durationIlSt5ratioILl1ELl1000EEEENS1_10time_pointIT_NS9_8durationEEE(i64 %0)
  %coerce.dive3 = getelementptr inbounds %"class.std::chrono::duration", ptr %ref.tmp, i32 0, i32 0
  store i64 %call, ptr %coerce.dive3, align 8
  %call4 = call noundef i64 @_ZNKSt6chrono8durationIlSt5ratioILl1ELl1000EEE5countEv(ptr noundef nonnull align 8 dereferenceable(8) %ref.tmp)
  ret i64 %call4
}