; Function Attrs: mustprogress nounwind uwtable
define noundef i64 @_ZN8proxygen13PingByteEvent10getLatencyEv(ptr nocapture noundef nonnull readonly align 8 dereferenceable(72) %this) unnamed_addr #3 align 2 {
entry:
  %pingRequestReceivedTime_ = getelementptr inbounds i8, ptr %this, i64 64
  %agg.tmp.sroa.0.0.copyload = load i64, ptr %pingRequestReceivedTime_, align 8
  %call.i.i = tail call i64 @_ZNSt6chrono3_V212steady_clock3nowEv() #8
  %sub.i.i.i.i = sub nsw i64 %call.i.i, %agg.tmp.sroa.0.0.copyload
  %div.i.i.i.i = sdiv i64 %sub.i.i.i.i, 1000000
  ret i64 %div.i.i.i.i
}